target datalayout = "e-m:e-p270:32:32-p271:32:32-p272:64:64-i64:64-i128:128-f80:128-n8:16:32:64-S128"
target triple = "x86_64-pc-linux-gnu"

%struct.quicklist = type { ptr, ptr, i64, i64, i64, [0 x %struct.quicklistBookmark] }
%struct.quicklistBookmark = type { ptr, ptr }
%struct.quicklistNode = type { ptr, ptr, ptr, i64, i32 }

; Function Attrs: nounwind uwtable
define dso_local void @quicklistBookmarksClear(ptr noundef %0) #0 {
  %2 = alloca ptr, align 8
  store ptr %0, ptr %2, align 8, !tbaa !9
  br label %3

3:                                                ; preds = %11, %1
  %4 = load ptr, ptr %2, align 8, !tbaa !9
  %5 = getelementptr inbounds nuw %struct.quicklist, ptr %4, i32 0, i32 4
  %6 = load i64, ptr %5, align 8
  %7 = lshr i64 %6, 32
  %8 = and i64 %7, 15
  %9 = trunc i64 %8 to i32
  %10 = icmp ne i32 %9, 0
  br i1 %10, label %11, label %32

11:                                               ; preds = %3
  %12 = load ptr, ptr %2, align 8, !tbaa !9
  %13 = getelementptr inbounds nuw %struct.quicklist, ptr %12, i32 0, i32 5
  %14 = load ptr, ptr %2, align 8, !tbaa !9
  %15 = getelementptr inbounds nuw %struct.quicklist, ptr %14, i32 0, i32 4
  %16 = load i64, ptr %15, align 8
  %17 = lshr i64 %16, 32
  %18 = and i64 %17, 15
  %19 = trunc i64 %18 to i32
  %20 = add i32 %19, -1
  %21 = zext i32 %20 to i64
  %22 = load i64, ptr %15, align 8
  %23 = and i64 %21, 15
  %24 = shl i64 %23, 32
  %25 = and i64 %22, -64424509441
  %26 = or i64 %25, %24
  store i64 %26, ptr %15, align 8
  %27 = trunc i64 %23 to i32
  %28 = zext i32 %27 to i64
  %29 = getelementptr inbounds nuw [0 x %struct.quicklistBookmark], ptr %13, i64 0, i64 %28
  %30 = getelementptr inbounds nuw %struct.quicklistBookmark, ptr %29, i32 0, i32 1
  %31 = load ptr, ptr %30, align 8, !tbaa !24
  call void @zfree(ptr noundef %31)
  br label %3, !llvm.loop !26

32:                                               ; preds = %3
  ret void
}

; Function Attrs: nounwind uwtable
define dso_local void @quicklistRelease(ptr noundef %0) #0 {
  %2 = alloca ptr, align 8
  %3 = alloca i64, align 8
  %4 = alloca ptr, align 8
  %5 = alloca ptr, align 8
  store ptr %0, ptr %2, align 8, !tbaa !9
  call void @llvm.lifetime.start.p0(i64 8, ptr %3) #10
  call void @llvm.lifetime.start.p0(i64 8, ptr %4) #10
  call void @llvm.lifetime.start.p0(i64 8, ptr %5) #10
  %6 = load ptr, ptr %2, align 8, !tbaa !9
  %7 = getelementptr inbounds nuw %struct.quicklist, ptr %6, i32 0, i32 0
  %8 = load ptr, ptr %7, align 8, !tbaa !12
  store ptr %8, ptr %4, align 8, !tbaa !12
  %9 = load ptr, ptr %2, align 8, !tbaa !9
  %10 = getelementptr inbounds nuw %struct.quicklist, ptr %9, i32 0, i32 3
  %11 = load i64, ptr %10, align 8, !tbaa !5
  store i64 %11, ptr %3, align 8, !tbaa !5
  br label %12

12:                                               ; preds = %16, %1
  %13 = load i64, ptr %3, align 8, !tbaa !5
  %14 = add i64 %13, -1
  store i64 %14, ptr %3, align 8, !tbaa !5
  %15 = icmp ne i64 %13, 0
  br i1 %15, label %16, label %38

16:                                               ; preds = %12
  %17 = load ptr, ptr %4, align 8, !tbaa !12
  %18 = getelementptr inbounds nuw %struct.quicklistNode, ptr %17, i32 0, i32 1
  %19 = load ptr, ptr %18, align 8, !tbaa !21
  store ptr %19, ptr %5, align 8, !tbaa !12
  %20 = load ptr, ptr %4, align 8, !tbaa !12
  %21 = getelementptr inbounds nuw %struct.quicklistNode, ptr %20, i32 0, i32 2
  %22 = load ptr, ptr %21, align 8, !tbaa !16
  call void @zfree(ptr noundef %22)
  %23 = load ptr, ptr %4, align 8, !tbaa !12
  %24 = getelementptr inbounds nuw %struct.quicklistNode, ptr %23, i32 0, i32 4
  %25 = load i32, ptr %24, align 8
  %26 = and i32 %25, 65535
  %27 = zext i32 %26 to i64
  %28 = load ptr, ptr %2, align 8, !tbaa !9
  %29 = getelementptr inbounds nuw %struct.quicklist, ptr %28, i32 0, i32 2
  %30 = load i64, ptr %29, align 8, !tbaa !5
  %31 = sub i64 %30, %27
  store i64 %31, ptr %29, align 8, !tbaa !5
  %32 = load ptr, ptr %4, align 8, !tbaa !12
  call void @zfree(ptr noundef %32)
  %33 = load ptr, ptr %2, align 8, !tbaa !9
  %34 = getelementptr inbounds nuw %struct.quicklist, ptr %33, i32 0, i32 3
  %35 = load i64, ptr %34, align 8, !tbaa !5
  %36 = add i64 %35, -1
  store i64 %36, ptr %34, align 8, !tbaa !5
  %37 = load ptr, ptr %5, align 8, !tbaa !12
  store ptr %37, ptr %4, align 8, !tbaa !12
  br label %12, !llvm.loop !22

38:                                               ; preds = %12
  %39 = load ptr, ptr %2, align 8, !tbaa !9
  call void @quicklistBookmarksClear(ptr noundef %39)
  %40 = load ptr, ptr %2, align 8, !tbaa !9
  call void @zfree(ptr noundef %40)
  call void @llvm.lifetime.end.p0(i64 8, ptr %5) #10
  call void @llvm.lifetime.end.p0(i64 8, ptr %4) #10
  call void @llvm.lifetime.end.p0(i64 8, ptr %3) #10
  ret void
}