; Function Attrs: nounwind uwtable
define dso_local void @quicklistRelease(ptr noundef %0) local_unnamed_addr #1 {
  %2 = getelementptr inbounds nuw i8, ptr %0, i64 24
  %3 = load i64, ptr %2, align 8, !tbaa !5
  %.not12 = icmp eq i64 %3, 0
  br i1 %.not12, label %._crit_edge, label %.lr.ph

.lr.ph:                                           ; preds = %1
  %4 = load ptr, ptr %0, align 8, !tbaa !16
  %5 = getelementptr inbounds nuw i8, ptr %0, i64 16
  br label %6

6:                                                ; preds = %.lr.ph, %6
  %.014 = phi i64 [ %3, %.lr.ph ], [ %7, %6 ]
  %.01113 = phi ptr [ %4, %.lr.ph ], [ %9, %6 ]
  %7 = add i64 %.014, -1
  %8 = getelementptr inbounds nuw i8, ptr %.01113, i64 8
  %9 = load ptr, ptr %8, align 8, !tbaa !17
  %10 = getelementptr inbounds nuw i8, ptr %.01113, i64 16
  %11 = load ptr, ptr %10, align 8, !tbaa !9
  tail call void @zfree(ptr noundef %11) #23
  %12 = getelementptr inbounds nuw i8, ptr %.01113, i64 32
  %13 = load i32, ptr %12, align 8
  %14 = and i32 %13, 65535
  %15 = zext nneg i32 %14 to i64
  %16 = load i64, ptr %5, align 8, !tbaa !5
  %17 = sub i64 %16, %15
  store i64 %17, ptr %5, align 8, !tbaa !5
  tail call void @zfree(ptr noundef %.01113) #23
  %18 = load i64, ptr %2, align 8, !tbaa !5
  %19 = add i64 %18, -1
  store i64 %19, ptr %2, align 8, !tbaa !5
  %.not = icmp eq i64 %7, 0
  br i1 %.not, label %._crit_edge, label %6, !llvm.loop !18

._crit_edge:                                      ; preds = %6, %1
  %20 = getelementptr inbounds nuw i8, ptr %0, i64 32
  %21 = load i64, ptr %20, align 8
  %22 = and i64 %21, 64424509440
  %.not3.i = icmp eq i64 %22, 0
  br i1 %.not3.i, label %quicklistBookmarksClear.exit, label %.lr.ph.i

.lr.ph.i:                                         ; preds = %._crit_edge
  %23 = getelementptr i8, ptr %0, i64 48
  br label %24

24:                                               ; preds = %24, %.lr.ph.i
  %25 = phi i64 [ %21, %.lr.ph.i ], [ %34, %24 ]
  %26 = lshr i64 %25, 32
  %27 = add nuw nsw i64 %26, 15
  %28 = and i64 %27, 15
  %29 = shl nuw nsw i64 %28, 32
  %30 = and i64 %25, -64424509441
  %31 = or disjoint i64 %29, %30
  store i64 %31, ptr %20, align 8
  %.idx.i = shl nuw nsw i64 %28, 4
  %32 = getelementptr i8, ptr %23, i64 %.idx.i
  %33 = load ptr, ptr %32, align 8, !tbaa !20
  tail call void @zfree(ptr noundef %33) #23
  %34 = load i64, ptr %20, align 8
  %35 = and i64 %34, 64424509440
  %.not.i = icmp eq i64 %35, 0
  br i1 %.not.i, label %quicklistBookmarksClear.exit, label %24, !llvm.loop !22

quicklistBookmarksClear.exit:                     ; preds = %24, %._crit_edge
  tail call void @zfree(ptr noundef nonnull %0) #23
  ret void
}